target datalayout = "e-m:e-p270:32:32-p271:32:32-p272:64:64-i64:64-i128:128-f80:128-n8:16:32:64-S128"
target triple = "x86_64-pc-linux-gnu"

%struct.FT_Vector_ = type { i64, i64 }
%struct.FT_ListRec_ = type { ptr, ptr }
%struct.FT_ModuleRec_ = type { ptr, ptr, ptr }
%struct.FT_Module_Class_ = type { i64, i64, ptr, i64, i64, ptr, ptr, ptr, ptr }
%struct.FT_LibraryRec_ = type { ptr, i32, i32, i32, i32, [32 x ptr], %struct.FT_ListRec_, ptr, ptr, [4 x ptr], [3 x %struct.FT_Vector_], i32 }
%struct.FT_Service_PropertiesRec_ = type { ptr, ptr }

@.str.21 = private unnamed_addr constant [11 x i8] c"properties\00", align 1

; Function Attrs: nounwind uwtable
define internal i32 @ft_property_do(ptr noundef %0, ptr noundef %1, ptr noundef %2, ptr noundef %3, i8 noundef zeroext %4, i8 noundef zeroext %5) #0 {
  %7 = alloca i32, align 4
  %8 = alloca ptr, align 8
  %9 = alloca ptr, align 8
  %10 = alloca ptr, align 8
  %11 = alloca ptr, align 8
  %12 = alloca i8, align 1
  %13 = alloca i8, align 1
  %14 = alloca ptr, align 8
  %15 = alloca ptr, align 8
  %16 = alloca ptr, align 8
  %17 = alloca ptr, align 8
  %18 = alloca i8, align 1
  %19 = alloca i32, align 4
  store ptr %0, ptr %8, align 8, !tbaa !70
  store ptr %1, ptr %9, align 8, !tbaa !183
  store ptr %2, ptr %10, align 8, !tbaa !183
  store ptr %3, ptr %11, align 8, !tbaa !41
  store i8 %4, ptr %12, align 1, !tbaa !64
  store i8 %5, ptr %13, align 1, !tbaa !64
  call void @llvm.lifetime.start.p0(i64 8, ptr %14) #10
  call void @llvm.lifetime.start.p0(i64 8, ptr %15) #10
  call void @llvm.lifetime.start.p0(i64 8, ptr %16) #10
  call void @llvm.lifetime.start.p0(i64 8, ptr %17) #10
  call void @llvm.lifetime.start.p0(i64 1, ptr %18) #10
  %20 = load ptr, ptr %8, align 8, !tbaa !70
  %21 = icmp ne ptr %20, null
  br i1 %21, label %23, label %22

22:                                               ; preds = %6
  store i32 33, ptr %7, align 4
  store i32 1, ptr %19, align 4
  br label %160

23:                                               ; preds = %6
  %24 = load ptr, ptr %9, align 8, !tbaa !183
  %25 = icmp ne ptr %24, null
  br i1 %25, label %26, label %32

26:                                               ; preds = %23
  %27 = load ptr, ptr %10, align 8, !tbaa !183
  %28 = icmp ne ptr %27, null
  br i1 %28, label %29, label %32

29:                                               ; preds = %26
  %30 = load ptr, ptr %11, align 8, !tbaa !41
  %31 = icmp ne ptr %30, null
  br i1 %31, label %33, label %32

32:                                               ; preds = %29, %26, %23
  store i32 6, ptr %7, align 4
  store i32 1, ptr %19, align 4
  br label %160

33:                                               ; preds = %29
  %34 = load ptr, ptr %8, align 8, !tbaa !70
  %35 = getelementptr inbounds nuw %struct.FT_LibraryRec_, ptr %34, i32 0, i32 5
  %36 = getelementptr inbounds [32 x ptr], ptr %35, i64 0, i64 0
  store ptr %36, ptr %14, align 8, !tbaa !302
  %37 = load ptr, ptr %14, align 8, !tbaa !302
  %38 = load ptr, ptr %8, align 8, !tbaa !70
  %39 = getelementptr inbounds nuw %struct.FT_LibraryRec_, ptr %38, i32 0, i32 4
  %40 = load i32, ptr %39, align 4, !tbaa !304
  %41 = zext i32 %40 to i64
  %42 = getelementptr inbounds nuw ptr, ptr %37, i64 %41
  store ptr %42, ptr %15, align 8, !tbaa !302
  br label %43

43:                                               ; preds = %60, %33
  %44 = load ptr, ptr %14, align 8, !tbaa !302
  %45 = load ptr, ptr %15, align 8, !tbaa !302
  %46 = icmp ult ptr %44, %45
  br i1 %46, label %47, label %63

47:                                               ; preds = %43
  %48 = load ptr, ptr %14, align 8, !tbaa !302
  %49 = getelementptr inbounds ptr, ptr %48, i64 0
  %50 = load ptr, ptr %49, align 8, !tbaa !75
  %51 = getelementptr inbounds nuw %struct.FT_ModuleRec_, ptr %50, i32 0, i32 0
  %52 = load ptr, ptr %51, align 8, !tbaa !86
  %53 = getelementptr inbounds nuw %struct.FT_Module_Class_, ptr %52, i32 0, i32 2
  %54 = load ptr, ptr %53, align 8, !tbaa !305
  %55 = load ptr, ptr %9, align 8, !tbaa !183
  %56 = call i32 @strcmp(ptr noundef %54, ptr noundef %55) #11
  %57 = icmp ne i32 %56, 0
  br i1 %57, label %59, label %58

58:                                               ; preds = %47
  br label %63

59:                                               ; preds = %47
  br label %60

60:                                               ; preds = %59
  %61 = load ptr, ptr %14, align 8, !tbaa !302
  %62 = getelementptr inbounds nuw ptr, ptr %61, i32 1
  store ptr %62, ptr %14, align 8, !tbaa !302
  br label %43, !llvm.loop !542

63:                                               ; preds = %58, %43
  %64 = load ptr, ptr %14, align 8, !tbaa !302
  %65 = load ptr, ptr %15, align 8, !tbaa !302
  %66 = icmp eq ptr %64, %65
  br i1 %66, label %67, label %71

67:                                               ; preds = %63
  br label %68

68:                                               ; preds = %67
  br label %69

69:                                               ; preds = %68
  br label %70

70:                                               ; preds = %69
  store i32 11, ptr %7, align 4
  store i32 1, ptr %19, align 4
  br label %160

71:                                               ; preds = %63
  %72 = load ptr, ptr %14, align 8, !tbaa !302
  %73 = getelementptr inbounds ptr, ptr %72, i64 0
  %74 = load ptr, ptr %73, align 8, !tbaa !75
  %75 = getelementptr inbounds nuw %struct.FT_ModuleRec_, ptr %74, i32 0, i32 0
  %76 = load ptr, ptr %75, align 8, !tbaa !86
  %77 = getelementptr inbounds nuw %struct.FT_Module_Class_, ptr %76, i32 0, i32 8
  %78 = load ptr, ptr %77, align 8, !tbaa !184
  %79 = icmp ne ptr %78, null
  br i1 %79, label %84, label %80

80:                                               ; preds = %71
  br label %81

81:                                               ; preds = %80
  br label %82

82:                                               ; preds = %81
  br label %83

83:                                               ; preds = %82
  store i32 7, ptr %7, align 4
  store i32 1, ptr %19, align 4
  br label %160

84:                                               ; preds = %71
  %85 = load ptr, ptr %14, align 8, !tbaa !302
  %86 = getelementptr inbounds ptr, ptr %85, i64 0
  %87 = load ptr, ptr %86, align 8, !tbaa !75
  %88 = getelementptr inbounds nuw %struct.FT_ModuleRec_, ptr %87, i32 0, i32 0
  %89 = load ptr, ptr %88, align 8, !tbaa !86
  %90 = getelementptr inbounds nuw %struct.FT_Module_Class_, ptr %89, i32 0, i32 8
  %91 = load ptr, ptr %90, align 8, !tbaa !184
  %92 = load ptr, ptr %14, align 8, !tbaa !302
  %93 = getelementptr inbounds ptr, ptr %92, i64 0
  %94 = load ptr, ptr %93, align 8, !tbaa !75
  %95 = call ptr %91(ptr noundef %94, ptr noundef @.str.21)
  store ptr %95, ptr %16, align 8, !tbaa !41
  %96 = load ptr, ptr %16, align 8, !tbaa !41
  %97 = icmp ne ptr %96, null
  br i1 %97, label %102, label %98

98:                                               ; preds = %84
  br label %99

99:                                               ; preds = %98
  br label %100

100:                                              ; preds = %99
  br label %101

101:                                              ; preds = %100
  store i32 7, ptr %7, align 4
  store i32 1, ptr %19, align 4
  br label %160

102:                                              ; preds = %84
  %103 = load ptr, ptr %16, align 8, !tbaa !41
  store ptr %103, ptr %17, align 8, !tbaa !543
  %104 = load i8, ptr %12, align 1, !tbaa !64
  %105 = icmp ne i8 %104, 0
  br i1 %105, label %106, label %116

106:                                              ; preds = %102
  %107 = load ptr, ptr %17, align 8, !tbaa !543
  %108 = getelementptr inbounds nuw %struct.FT_Service_PropertiesRec_, ptr %107, i32 0, i32 0
  %109 = load ptr, ptr %108, align 8, !tbaa !545
  %110 = icmp ne ptr %109, null
  %111 = xor i1 %110, true
  %112 = zext i1 %111 to i32
  %113 = icmp ne i32 %112, 0
  %114 = zext i1 %113 to i32
  %115 = trunc i32 %114 to i8
  store i8 %115, ptr %18, align 1, !tbaa !64
  br label %126

116:                                              ; preds = %102
  %117 = load ptr, ptr %17, align 8, !tbaa !543
  %118 = getelementptr inbounds nuw %struct.FT_Service_PropertiesRec_, ptr %117, i32 0, i32 1
  %119 = load ptr, ptr %118, align 8, !tbaa !547
  %120 = icmp ne ptr %119, null
  %121 = xor i1 %120, true
  %122 = zext i1 %121 to i32
  %123 = icmp ne i32 %122, 0
  %124 = zext i1 %123 to i32
  %125 = trunc i32 %124 to i8
  store i8 %125, ptr %18, align 1, !tbaa !64
  br label %126

126:                                              ; preds = %116, %106
  %127 = load i8, ptr %18, align 1, !tbaa !64
  %128 = icmp ne i8 %127, 0
  br i1 %128, label %129, label %133

129:                                              ; preds = %126
  br label %130

130:                                              ; preds = %129
  br label %131

131:                                              ; preds = %130
  br label %132

132:                                              ; preds = %131
  store i32 7, ptr %7, align 4
  store i32 1, ptr %19, align 4
  br label %160

133:                                              ; preds = %126
  %134 = load i8, ptr %12, align 1, !tbaa !64
  %135 = zext i8 %134 to i32
  %136 = icmp ne i32 %135, 0
  br i1 %136, label %137, label %148

137:                                              ; preds = %133
  %138 = load ptr, ptr %17, align 8, !tbaa !543
  %139 = getelementptr inbounds nuw %struct.FT_Service_PropertiesRec_, ptr %138, i32 0, i32 0
  %140 = load ptr, ptr %139, align 8, !tbaa !545
  %141 = load ptr, ptr %14, align 8, !tbaa !302
  %142 = getelementptr inbounds ptr, ptr %141, i64 0
  %143 = load ptr, ptr %142, align 8, !tbaa !75
  %144 = load ptr, ptr %10, align 8, !tbaa !183
  %145 = load ptr, ptr %11, align 8, !tbaa !41
  %146 = load i8, ptr %13, align 1, !tbaa !64
  %147 = call i32 %140(ptr noundef %143, ptr noundef %144, ptr noundef %145, i8 noundef zeroext %146)
  br label %158

148:                                              ; preds = %133
  %149 = load ptr, ptr %17, align 8, !tbaa !543
  %150 = getelementptr inbounds nuw %struct.FT_Service_PropertiesRec_, ptr %149, i32 0, i32 1
  %151 = load ptr, ptr %150, align 8, !tbaa !547
  %152 = load ptr, ptr %14, align 8, !tbaa !302
  %153 = getelementptr inbounds ptr, ptr %152, i64 0
  %154 = load ptr, ptr %153, align 8, !tbaa !75
  %155 = load ptr, ptr %10, align 8, !tbaa !183
  %156 = load ptr, ptr %11, align 8, !tbaa !41
  %157 = call i32 %151(ptr noundef %154, ptr noundef %155, ptr noundef %156)
  br label %158

158:                                              ; preds = %148, %137
  %159 = phi i32 [ %147, %137 ], [ %157, %148 ]
  store i32 %159, ptr %7, align 4
  store i32 1, ptr %19, align 4
  br label %160

160:                                              ; preds = %158, %132, %101, %83, %70, %32, %22
  call void @llvm.lifetime.end.p0(i64 1, ptr %18) #10
  call void @llvm.lifetime.end.p0(i64 8, ptr %17) #10
  call void @llvm.lifetime.end.p0(i64 8, ptr %16) #10
  call void @llvm.lifetime.end.p0(i64 8, ptr %15) #10
  call void @llvm.lifetime.end.p0(i64 8, ptr %14) #10
  %161 = load i32, ptr %7, align 4
  ret i32 %161
}

; Function Attrs: nounwind uwtable
define i32 @FT_Property_Set(ptr noundef %0, ptr noundef %1, ptr noundef %2, ptr noundef %3) #0 {
  %5 = alloca ptr, align 8
  %6 = alloca ptr, align 8
  %7 = alloca ptr, align 8
  %8 = alloca ptr, align 8
  store ptr %0, ptr %5, align 8, !tbaa !70
  store ptr %1, ptr %6, align 8, !tbaa !183
  store ptr %2, ptr %7, align 8, !tbaa !183
  store ptr %3, ptr %8, align 8, !tbaa !41
  %9 = load ptr, ptr %5, align 8, !tbaa !70
  %10 = load ptr, ptr %6, align 8, !tbaa !183
  %11 = load ptr, ptr %7, align 8, !tbaa !183
  %12 = load ptr, ptr %8, align 8, !tbaa !41
  %13 = call i32 @ft_property_do(ptr noundef %9, ptr noundef %10, ptr noundef %11, ptr noundef %12, i8 noundef zeroext 1, i8 noundef zeroext 0)
  ret i32 %13
}