; Function Attrs: nounwind uwtable
define i32 @FT_Property_Set(ptr noundef readonly %0, ptr noundef readonly %1, ptr noundef %2, ptr noundef %3) local_unnamed_addr #0 {
  %.not.i = icmp eq ptr %0, null
  br i1 %.not.i, label %ft_property_do.exit, label %5

5:                                                ; preds = %4
  %6 = icmp ne ptr %1, null
  %7 = icmp ne ptr %2, null
  %or.cond.i = and i1 %6, %7
  %8 = icmp ne ptr %3, null
  %or.cond3.i = and i1 %or.cond.i, %8
  br i1 %or.cond3.i, label %9, label %ft_property_do.exit

9:                                                ; preds = %5
  %.ptr.i = getelementptr inbounds nuw i8, ptr %0, i64 24
  %10 = getelementptr inbounds nuw i8, ptr %0, i64 20
  %11 = load i32, ptr %10, align 4, !tbaa !256
  %12 = zext i32 %11 to i64
  %.idx.i = shl nuw nsw i64 %12, 3
  %13 = getelementptr inbounds nuw i8, ptr %0, i64 %.idx.i
  %.ptr54.i = getelementptr inbounds nuw i8, ptr %13, i64 24
  %.not55.i = icmp eq i32 %11, 0
  br i1 %.not55.i, label %._crit_edge.i, label %.lr.ph.i

.lr.ph.i:                                         ; preds = %9, %19
  %.03751.i = phi ptr [ %20, %19 ], [ %.ptr.i, %9 ]
  %14 = load ptr, ptr %.03751.i, align 8, !tbaa !257
  %15 = load ptr, ptr %14, align 8, !tbaa !88
  %16 = getelementptr inbounds nuw i8, ptr %15, i64 16
  %17 = load ptr, ptr %16, align 8, !tbaa !258
  %18 = tail call i32 @strcmp(ptr noundef nonnull dereferenceable(1) %17, ptr noundef nonnull readonly dereferenceable(1) %1) #35
  %.not44.i = icmp eq i32 %18, 0
  br i1 %.not44.i, label %._crit_edge.i, label %19

19:                                               ; preds = %.lr.ph.i
  %20 = getelementptr inbounds nuw i8, ptr %.03751.i, i64 8
  %21 = icmp ult ptr %20, %.ptr54.i
  br i1 %21, label %.lr.ph.i, label %._crit_edge.i, !llvm.loop !452

._crit_edge.i:                                    ; preds = %19, %.lr.ph.i, %9
  %.037.lcssa.i = phi ptr [ %.ptr.i, %9 ], [ %20, %19 ], [ %.03751.i, %.lr.ph.i ]
  %22 = icmp eq ptr %.037.lcssa.i, %.ptr54.i
  br i1 %22, label %ft_property_do.exit, label %23

23:                                               ; preds = %._crit_edge.i
  %24 = load ptr, ptr %.037.lcssa.i, align 8, !tbaa !257
  %25 = load ptr, ptr %24, align 8, !tbaa !88
  %26 = getelementptr inbounds nuw i8, ptr %25, i64 64
  %27 = load ptr, ptr %26, align 8, !tbaa !90
  %.not45.i = icmp eq ptr %27, null
  br i1 %.not45.i, label %ft_property_do.exit, label %28

28:                                               ; preds = %23
  %29 = tail call ptr %27(ptr noundef nonnull %24, ptr noundef nonnull @.str.21) #34
  %.not46.i = icmp eq ptr %29, null
  br i1 %.not46.i, label %ft_property_do.exit, label %30

30:                                               ; preds = %28
  %.0.in.in.i = load ptr, ptr %29, align 8, !tbaa !453
  %.0.in.i = icmp eq ptr %.0.in.in.i, null
  br i1 %.0.in.i, label %ft_property_do.exit, label %31

31:                                               ; preds = %30
  %32 = load ptr, ptr %.037.lcssa.i, align 8, !tbaa !257
  %33 = tail call i32 %.0.in.in.i(ptr noundef %32, ptr noundef nonnull %2, ptr noundef nonnull %3, i8 noundef zeroext 0) #34
  br label %ft_property_do.exit

ft_property_do.exit:                              ; preds = %4, %5, %._crit_edge.i, %23, %28, %30, %31
  %.036.i = phi i32 [ 33, %4 ], [ 6, %5 ], [ 11, %._crit_edge.i ], [ 7, %23 ], [ 7, %28 ], [ 7, %30 ], [ %33, %31 ]
  ret i32 %.036.i
}